; Function Attrs: nounwind uwtable
define ptr @l_Std_Time_Internal_UnitVal_ediv___rarg___boxed(ptr noundef %0, ptr noundef %1) #1 {
  %3 = ptrtoint ptr %0 to i64
  %4 = and i64 %3, 1
  %.not.i.i = icmp eq i64 %4, 0
  %.pre11 = ptrtoint ptr %1 to i64
  %.pre = and i64 %.pre11, 1
  %5 = icmp eq i64 %.pre, 0
  br i1 %.not.i.i, label %l_Std_Time_Internal_UnitVal_ediv___rarg.exit, label %6, !prof !15

6:                                                ; preds = %2
  br i1 %5, label %l_Std_Time_Internal_UnitVal_ediv___rarg.exit.thread15, label %8, !prof !15

l_Std_Time_Internal_UnitVal_ediv___rarg.exit.thread15: ; preds = %6
  %7 = tail call ptr @lean_int_big_ediv(ptr noundef %0, ptr noundef %1) #5
  br label %31

8:                                                ; preds = %6
  %9 = lshr i64 %.pre11, 1
  %10 = trunc i64 %9 to i32
  %11 = icmp eq i32 %10, 0
  br i1 %11, label %lean_dec.exit, label %12

12:                                               ; preds = %8
  %sext.i.i = shl i64 %9, 32
  %13 = ashr exact i64 %sext.i.i, 32
  %14 = shl i64 %3, 31
  %15 = ashr i64 %14, 32
  %16 = sdiv i64 %15, %13
  %17 = srem i64 %15, %13
  %18 = icmp slt i64 %17, 0
  %19 = icmp sgt i32 %10, 0
  %.v.i.i = select i1 %19, i64 -1, i64 1
  %20 = select i1 %18, i64 %.v.i.i, i64 0
  %.016.i.i = add nsw i64 %20, %16
  %21 = add nsw i64 %.016.i.i, 2147483648
  %22 = icmp ult i64 %21, 4294967296
  br i1 %22, label %23, label %28, !prof !11

23:                                               ; preds = %12
  %24 = shl nsw i64 %.016.i.i, 1
  %25 = and i64 %24, 8589934590
  %26 = or disjoint i64 %25, 1
  %27 = inttoptr i64 %26 to ptr
  br label %lean_dec.exit

28:                                               ; preds = %12
  %29 = tail call ptr @lean_big_int64_to_int(i64 noundef range(i64 -4611686016279904256, 4611686018427387905) %.016.i.i) #5
  br label %lean_dec.exit

l_Std_Time_Internal_UnitVal_ediv___rarg.exit:     ; preds = %2
  %30 = tail call ptr @lean_int_big_ediv(ptr noundef %0, ptr noundef %1) #5
  br i1 %5, label %31, label %lean_dec.exit5.thread

31:                                               ; preds = %l_Std_Time_Internal_UnitVal_ediv___rarg.exit.thread15, %l_Std_Time_Internal_UnitVal_ediv___rarg.exit
  %32 = phi ptr [ %7, %l_Std_Time_Internal_UnitVal_ediv___rarg.exit.thread15 ], [ %30, %l_Std_Time_Internal_UnitVal_ediv___rarg.exit ]
  %33 = load i32, ptr %1, align 4, !tbaa !8
  %34 = icmp sgt i32 %33, 1
  br i1 %34, label %35, label %37, !prof !11

35:                                               ; preds = %31
  %36 = add nsw i32 %33, -1
  store i32 %36, ptr %1, align 4, !tbaa !8
  br label %lean_dec.exit5

37:                                               ; preds = %31
  %.not.i = icmp eq i32 %33, 0
  br i1 %.not.i, label %lean_dec.exit5, label %38

38:                                               ; preds = %37
  tail call void @lean_dec_ref_cold(ptr noundef nonnull %1) #5
  br label %lean_dec.exit5

lean_dec.exit5:                                   ; preds = %38, %37, %35
  br i1 %.not.i.i, label %lean_dec.exit5.thread, label %lean_dec.exit

lean_dec.exit5.thread:                            ; preds = %l_Std_Time_Internal_UnitVal_ediv___rarg.exit, %lean_dec.exit5
  %.1.i.i1419 = phi ptr [ %32, %lean_dec.exit5 ], [ %30, %l_Std_Time_Internal_UnitVal_ediv___rarg.exit ]
  %39 = load i32, ptr %0, align 4, !tbaa !8
  %40 = icmp sgt i32 %39, 1
  br i1 %40, label %41, label %43, !prof !11

41:                                               ; preds = %lean_dec.exit5.thread
  %42 = add nsw i32 %39, -1
  store i32 %42, ptr %0, align 4, !tbaa !8
  br label %lean_dec.exit

43:                                               ; preds = %lean_dec.exit5.thread
  %.not.i6 = icmp eq i32 %39, 0
  br i1 %.not.i6, label %lean_dec.exit, label %44

44:                                               ; preds = %43
  tail call void @lean_dec_ref_cold(ptr noundef nonnull %0) #5
  br label %lean_dec.exit

lean_dec.exit:                                    ; preds = %8, %23, %28, %44, %43, %41, %lean_dec.exit5
  %.1.i.i1418 = phi ptr [ %.1.i.i1419, %44 ], [ %.1.i.i1419, %43 ], [ %.1.i.i1419, %41 ], [ %32, %lean_dec.exit5 ], [ %29, %28 ], [ %27, %23 ], [ inttoptr (i64 1 to ptr), %8 ]
  ret ptr %.1.i.i1418
}